target datalayout = "e-m:e-p270:32:32-p271:32:32-p272:64:64-i64:64-i128:128-f80:128-n8:16:32:64-S128"
target triple = "x86_64-pc-linux-gnu"

; Function Attrs: inlinehint nounwind uwtable
define internal zeroext i1 @_mi_is_power_of_two(i64 noundef %0) #1 {
  %2 = alloca i64, align 8
  store i64 %0, ptr %2, align 8, !tbaa !8
  %3 = load i64, ptr %2, align 8, !tbaa !8
  %4 = load i64, ptr %2, align 8, !tbaa !8
  %5 = sub i64 %4, 1
  %6 = and i64 %3, %5
  %7 = icmp eq i64 %6, 0
  ret i1 %7
}

; Function Attrs: nounwind uwtable
define hidden noalias ptr @mi_heap_malloc_aligned(ptr noundef %0, i64 noundef %1, i64 noundef %2) #0 {
  %4 = alloca ptr, align 8
  %5 = alloca ptr, align 8
  %6 = alloca i64, align 8
  %7 = alloca i64, align 8
  store ptr %0, ptr %5, align 8, !tbaa !3
  store i64 %1, ptr %6, align 8, !tbaa !8
  store i64 %2, ptr %7, align 8, !tbaa !8
  %8 = load i64, ptr %7, align 8, !tbaa !8
  %9 = call zeroext i1 @_mi_is_power_of_two(i64 noundef %8)
  br i1 %9, label %11, label %10

10:                                               ; preds = %3
  store ptr null, ptr %4, align 8
  br label %38

11:                                               ; preds = %3
  %12 = load i64, ptr %6, align 8, !tbaa !8
  %13 = call zeroext i1 @_mi_is_power_of_two(i64 noundef %12)
  br i1 %13, label %14, label %21

14:                                               ; preds = %11
  %15 = load i64, ptr %6, align 8, !tbaa !8
  %16 = load i64, ptr %7, align 8, !tbaa !8
  %17 = icmp uge i64 %15, %16
  br i1 %17, label %18, label %21

18:                                               ; preds = %14
  %19 = load i64, ptr %6, align 8, !tbaa !8
  %20 = icmp ule i64 %19, 1024
  br label %21

21:                                               ; preds = %18, %14, %11
  %22 = phi i1 [ false, %14 ], [ false, %11 ], [ %20, %18 ]
  %23 = xor i1 %22, true
  %24 = xor i1 %23, true
  %25 = zext i1 %24 to i32
  %26 = sext i32 %25 to i64
  %27 = call i64 @llvm.expect.i64(i64 %26, i64 1)
  %28 = icmp ne i64 %27, 0
  br i1 %28, label %29, label %33

29:                                               ; preds = %21
  %30 = load ptr, ptr %5, align 8, !tbaa !3
  %31 = load i64, ptr %6, align 8, !tbaa !8
  %32 = call noalias ptr @mi_heap_malloc_small(ptr noundef %30, i64 noundef %31)
  store ptr %32, ptr %4, align 8
  br label %38

33:                                               ; preds = %21
  %34 = load ptr, ptr %5, align 8, !tbaa !3
  %35 = load i64, ptr %6, align 8, !tbaa !8
  %36 = load i64, ptr %7, align 8, !tbaa !8
  %37 = call noalias ptr @mi_heap_malloc_aligned_at(ptr noundef %34, i64 noundef %35, i64 noundef %36, i64 noundef 0)
  store ptr %37, ptr %4, align 8
  br label %38

38:                                               ; preds = %33, %29, %10
  %39 = load ptr, ptr %4, align 8
  ret ptr %39
}