; Function Attrs: nounwind uwtable
define hidden noalias ptr @mi_heap_malloc_aligned(ptr noundef %0, i64 noundef %1, i64 noundef %2) local_unnamed_addr #0 {
  %4 = tail call range(i64 0, 65) i64 @llvm.ctpop.i64(i64 %2)
  %5 = icmp samesign ult i64 %4, 2
  br i1 %5, label %6, label %13

6:                                                ; preds = %3
  %7 = tail call range(i64 0, 65) i64 @llvm.ctpop.i64(i64 %1)
  %8 = icmp samesign ult i64 %7, 2
  %.not = icmp uge i64 %1, %2
  %or.cond.not14 = and i1 %8, %.not
  %9 = icmp ult i64 %1, 1025
  %or.cond12 = and i1 %9, %or.cond.not14
  br i1 %or.cond12, label %10, label %.critedge, !prof !16

10:                                               ; preds = %6
  %11 = tail call noalias ptr @mi_heap_malloc_small(ptr noundef %0, i64 noundef %1) #8
  br label %13

.critedge:                                        ; preds = %6
  %12 = tail call noalias ptr @mi_heap_malloc_aligned_at(ptr noundef %0, i64 noundef %1, i64 noundef %2, i64 noundef 0)
  br label %13

13:                                               ; preds = %3, %.critedge, %10
  %.0 = phi ptr [ %11, %10 ], [ %12, %.critedge ], [ null, %3 ]
  ret ptr %.0
}